; Function Attrs: nounwind sspstrong uwtable
define dso_local ptr @qdev_intercept_gpio_out(ptr noundef %dev, ptr noundef %icpt, ptr noundef %name, i32 noundef %n) local_unnamed_addr #0 {
entry:
  %tobool.not.i = icmp eq ptr %name, null
  %cond.i = select i1 %tobool.not.i, ptr @.str.5, ptr %name
  %call.i = tail call noalias ptr (ptr, ...) @g_strdup_printf(ptr noundef nonnull @.str.8, ptr noundef nonnull %cond.i, i32 noundef %n) #5
  %call1.i = tail call ptr @object_property_get_link(ptr noundef %dev, ptr noundef %call.i, ptr noundef null) #5
  %tobool2.not.i = icmp eq ptr %call1.i, null
  br i1 %tobool2.not.i, label %qdev_disconnect_gpio_out_named.exit, label %if.then.i

if.then.i:                                        ; preds = %entry
  %call3.i = tail call zeroext i1 @object_property_set_link(ptr noundef %dev, ptr noundef %call.i, ptr noundef null, ptr noundef null) #5
  br label %qdev_disconnect_gpio_out_named.exit

qdev_disconnect_gpio_out_named.exit:              ; preds = %entry, %if.then.i
  tail call void @g_free(ptr noundef %call.i) #5
  %call.i6 = tail call noalias ptr (ptr, ...) @g_strdup_printf(ptr noundef nonnull @.str.8, ptr noundef nonnull %cond.i, i32 noundef %n) #5
  %tobool1.not.i = icmp eq ptr %icpt, null
  br i1 %tobool1.not.i, label %qdev_connect_gpio_out_named.exit, label %land.lhs.true.i

land.lhs.true.i:                                  ; preds = %qdev_disconnect_gpio_out_named.exit
  %parent.i = getelementptr inbounds nuw i8, ptr %icpt, i64 32
  %0 = load ptr, ptr %parent.i, align 8
  %tobool2.not.i7 = icmp eq ptr %0, null
  br i1 %tobool2.not.i7, label %if.then.i8, label %qdev_connect_gpio_out_named.exit

if.then.i8:                                       ; preds = %land.lhs.true.i
  %call3.i9 = tail call ptr @qdev_get_machine() #5
  %call4.i = tail call ptr @container_get(ptr noundef %call3.i9, ptr noundef nonnull @.str.9) #5
  %call5.i = tail call ptr @object_property_add_child(ptr noundef %call4.i, ptr noundef nonnull @.str.10, ptr noundef nonnull %icpt) #5
  br label %qdev_connect_gpio_out_named.exit

qdev_connect_gpio_out_named.exit:                 ; preds = %qdev_disconnect_gpio_out_named.exit, %land.lhs.true.i, %if.then.i8
  %call6.i = tail call zeroext i1 @object_property_set_link(ptr noundef %dev, ptr noundef %call.i6, ptr noundef %icpt, ptr noundef nonnull @error_abort) #5
  tail call void @g_free(ptr noundef %call.i6) #5
  ret ptr %call1.i
}